(dp1
Vlabel:Zweckform-3475
p2
(dp3
S'bottom margin'
p4
F0.43588370454800085
sS'paper.height'
p5
F29.700000000000003
sS'left margin'
p6
F0
sS'height'
p7
F3.6026019671380003
sS'down'
p8
I8
sS'width'
p9
F7.00510837746
sS'horizontal pitch'
p10
F7.00510837746
sS'paper'
p11
VA4
p12
sS'vertical pitch'
p13
F3.6026019671380003
sS'paper.width'
p14
F21
sS'right margin'
p15
F-0.015325132380000994
sS'across'
p16
I3
sS'top margin'
p17
F0.44330055834800008
ssVlabel:Encre.com-BCV10
p18
(dp19
g4
F0.60112481670000051
sS'paper.height'
p20
F29.700000000000003
sg6
F1.70003612182
sg7
F5.3999694784600001
sg8
I5
sg9
F8.6000167208400011
sg10
F9.0000667233600016
sg11
VA4
p21
sg13
F5.5499000349600003
sS'paper.width'
p22
F21
sg15
F1.6998804339799989
sg16
I2
sg17
F1.499305565
ssS'labels'
p23
(lp24
VAvery-7162
p25
aVEncre.com-BCV10
p26
aVZweckform-3474
p27
aVRussian-A45x9
p28
aVEdnet-BC
p29
aVAlpi-02793
p30
aVZweckform-6091
p31
aVAvery-5305
p32
aVHerma-4620
p33
aVAvery-18036
p34
aVAvery-5366
p35
aVZweckform-3669
p36
aVAvery-32015
p37
aVHema-Etiketten
p38
aVAPLI-1999
p39
aVAvery-3274.1
p40
aVOfficeMax-OM99060
p41
aVHerma-4828
p42
aVSigel-DP830
p43
aVAvery-7164
p44
aVAvery-7165
p45
aVBruna-241301
p46
aVZweckform-3477
p47
aVAvery-7161
p48
aVZweckform-3475
p49
aVDataBecker-BC?
p50
aVAvery-7169
p51
aVZweckform-32010
p52
aVZweckform-4760
p53
aVZweckform-4761
p54
aVStaples-EUBCSupreme
p55
aVStomper-PROSpine
p56
aVAvery-5371
p57
aVAvery-L4732
p58
aVAvery-8651
p59
aVZweckform-3688
p60
aVAvery-8414
p61
aVDataline-57125
p62
aVStomper-PROZip
p63
aVAvery-5159
p64
aVHerma-4608
p65
aVAvery-5997-Spine
p66
aVHerma-4607
p67
aVNetc-749303-70001
p68
aVDECAdry-OCC3342
p69
aVZweckform-4780
p70
aVZweckform-4781
p71
aVAvery-8373
p72
aVHerma-4614
p73
aVNeato-USCD2lblRectangles
p74
aVSigel-LP800
p75
aVAvery-8435B
p76
aVAvery-8435A
p77
aVAvery-8666
p78
aVDataBecker-0598
p79
aVHerma-4283
p80
aVHerma-4293
p81
aVHerma-4284
p82
aVAvery-5168
p83
aVAvery-5167
p84
aVAvery-5164
p85
aVAvery-5162
p86
aVAvery-5163
p87
aVAvery-5160
p88
aVAvery-5161
p89
aVAvery-6570
p90
aVCelcast-IJ37
p91
aVAvery-LSK-3.5
p92
aVAvery-LSK-5
p93
aVPoundland-30
p94
aVAvery-LSK-3
p95
aVHerma-4464
p96
aVAscom-A4/24/MKII
p97
aVDECAdry-DLW-1787
p98
aVDECAdry-DLW-1786
p99
aVNeato-SlimlineCDCase-spine
p100
aVAvery-5931-Spine
p101
aVAvery-7414
p102
aVEpson-S041144
p103
aVAvery-8195
p104
aVHerma-8803
p105
aVHerma-4606
p106
aVRussian-A35x9
p107
aVAvery-8165
p108
aVDataBecker-0526
p109
aVAvery-LSK-5.5
p110
aVHerma-4625
p111
aVAvery-6879
p112
aVAvery-7163
p113
aVAvery-7664
p114
aVConnect-KF10647
p115
aVAvery-5388
p116
aVAvery-5389
p117
aVAvery-LSK-8
p118
aVZweckform-6021
p119
aVAvery-6490
p120
aVAgipa-119488
p121
aVAvery-5197
p122
aVAvery-5196
p123
aS'Buro1 129820'
p124
aVAvery-5997-Face
p125
aVZweckform-4732
p126
aVAvery-6121
p127
aVZweckform-3348
p128
aVNeato-SlimlineCDCase
p129
aVTough-Tags-TTLW-2016
p130
aVEdnet-45021
p131
aVAvery-5126
p132
aVDataBecker-0491
p133
aVAvery-5395
p134
aVAvery-5663
p135
aVKingdom-L
p136
aS'Avery-5526'
p137
aVZweckform-4746
p138
aVSouthworth-BC
p139
aVViking-02204
p140
aVZweckform-3651
p141
aVAvery-7160
p142
aVAvery-LSK-8.5
p143
aVApli-01293
p144
aVZweckform-3490
p145
aVZweckform-3659
p146
asVlabel:Russian-A45x9
p147
(dp148
g4
F1.4000000000000021
sS'paper.height'
p149
F29.700000000000003
sg6
F0.5
sg7
F9
sg8
I3
sg9
F5
sg10
F5
sg11
g21
sg13
F9
sS'paper.width'
p150
F21
sg15
F0.5
sg16
I4
sg17
F1.3
ssVlabel:Avery-6570
p151
(dp152
g4
F1.2699998319999999
sS'paper.height'
p153
F27.940000000000001
sg6
F1.270000008
sg7
F3.1750000200000001
sg8
I8
sg9
F4.4450000279999999
sg10
F4.9225200310080002
sg11
S'Letter'
p154
sg13
F3.1750000200000001
sS'paper.width'
p155
F21.59
sg15
F1.1074398709760001
sg16
I4
sg17
F1.270000008
ssVlabel:Ednet-BC
p156
(dp157
g4
F2.0422220479999993
sS'paper.height'
p158
F29.700000000000003
sg6
F1.4111111200000002
sg7
F5.1152778100000003
sg8
I5
sg9
F8.925277834000001
sg10
F8.925277834000001
sg11
g21
sg13
F5.1152778100000003
sS'paper.width'
p159
F21
sg15
F1.738333211999997
sg16
I2
sg17
F2.081388902
ssVlabel:Alpi-02793
p160
(dp161
g4
F2.099999992808403
sS'paper.height'
p162
F29.700000000000003
sg6
F1.5000005372266001
sg7
F5.0800000320000001
sg8
I5
sg9
F8.9999961678040012
sg10
F8.9999961678040012
sg11
g21
sg13
F5.0800000320000001
sS'paper.width'
p163
F21
sg15
F1.5000071271653965
sg16
I2
sg17
F2.1999998471916
ssVlabel:Zweckform-6091
p164
(dp165
g4
F1.3197331545600015
sS'paper.height'
p166
F29.700000000000003
sg6
F0.81001306065800005
sg7
F3.3799991879580005
sg8
I8
sg9
F6.4599961518039999
sg10
F6.4599961518039999
sg11
g12
sg13
F3.3824686324180004
sS'paper.width'
p167
F21
sg15
F0.80999848393000029
sg16
I3
sg17
F1.3229872305560002
ssVlabel:Zweckform-4732
p168
(dp169
g4
F1.1999862649168023
sS'paper.height'
p170
F29.700000000000003
sg6
F1.0999999235958
sg7
F1.700000844042
sg8
I16
sg9
F3.5999914115660001
sg10
F3.8000164128260003
sg11
g12
sg13
F1.700000844042
sS'paper.width'
p171
F21
sg15
F1.099943013534201
sg16
I5
sg17
F1.3000002304112002
ssVlabel:Herma-4620
p172
(dp173
g4
F0.066666480000002082
sS'paper.height'
p174
F29.700000000000003
sg6
F0
sg7
F3.7041666900000001
sg8
I8
sg9
F10.512777844
sg10
F10.512777844
sg11
g21
sg13
F3.7041666900000001
sS'paper.width'
p175
F21
sg15
F-0.025555688000000742
sg16
I2
sg17
F0
ssVlabel:Avery-18036
p176
(dp177
g4
F0.34888870400000016
sS'paper.height'
p178
F29.700000000000003
sg6
F0
sg7
F3.2102777980000003
sg8
I9
sg9
F6.9850000440000004
sg10
F6.9850000440000004
sg11
VA4
p179
sg13
F3.2102777980000003
sS'paper.width'
p180
F21
sg15
F0.044999867999999665
sg16
I3
sg17
F0.45861111400000004
ssVlabel:Avery-5366
p181
(dp182
g4
F1.2699873000000004
sS'paper.height'
p183
F27.940000000000001
sg6
F1.349375
sg7
F1.6933341800000001
sg8
I15
sg9
F8.7312499999999993
sg10
F10.16
sg11
g154
sg13
F1.6933341800000001
sS'paper.width'
p184
F21.59
sg15
F1.349375000000002
sg16
I2
sg17
F1.27
ssVlabel:Zweckform-3669
p185
(dp186
g4
F2.1480553820000026
sS'paper.height'
p187
F29.700000000000003
sg6
F0
sg7
F5.0800000320000001
sg8
I5
sg9
F6.999993099650001
sg10
F6.999993099650001
sg11
g12
sg13
F5.0800000320000001
sS'paper.width'
p188
F21
sg15
F2.0701049995963672e-05
sg16
I3
sg17
F2.151944458
ssVlabel:Avery-32015
p189
(dp190
g4
F3.1500000000000057
sS'paper.height'
p191
F29.700000000000003
sg6
F1.7000000000000002
sg7
F5.4000000000000004
sg8
I4
sg9
F8.5
sg10
F9.0999999999999996
sg11
g179
sg13
F6
sS'paper.width'
p192
F21
sg15
F1.7000000000000011
sg16
I2
sg17
F3.1500000000000004
ssVlabel:Hema-Etiketten
p193
(dp194
g4
F1.4816581555799964
sS'paper.height'
p195
F29.700000000000003
sg6
F0.70555556000000008
sg7
F3.8100000240000003
sg8
I7
sg9
F6.2794444840000008
sg10
F6.5969444860000008
sg11
g21
sg13
F3.7747222460000005
sS'paper.width'
p196
F21
sg15
F0.82111098399999705
sg16
I3
sg17
F1.7600083444200001
ssVlabel:APLI-1999
p197
(dp198
g4
F1.5874914895799996
sS'paper.height'
p199
F29.700000000000003
sg6
F0.45861111400000004
sg7
F6.8086111540000003
sg8
I4
sg9
F9.9130556180000013
sg10
F10.195277842000001
sg11
g21
sg13
F6.8438889320000005
sS'paper.width'
p200
F21
sg15
F0.43305542599999747
sg16
I2
sg17
F0.77223056042000005
ssVlabel:Avery-3274.1
p201
(dp202
g4
F3.1749999999999989
sS'paper.height'
p203
F27.940000000000001
sg6
F0.79374999999999996
sg7
F6.3499999999999996
sg8
I3
sg9
F6.3499999999999996
sg10
F6.8262499999999999
sg11
g154
sg13
F7.6200000000000001
sS'paper.width'
p204
F21.59
sg15
F0.79375000000000107
sg16
I3
sg17
F3.1749999999999998
ssVlabel:Celcast-IJ37
p205
(dp206
g4
F1.8234998243999989
sS'paper.height'
p207
F29.700000000000003
sg6
F1.5169444540000001
sg7
F5.2034722550000003
sg8
I5
sg9
F8.9958333900000014
sg10
F8.9958333900000014
sg11
g21
sg13
F5.2034722550000003
sS'paper.width'
p208
F21
sg15
F1.4913887659999965
sg16
I2
sg17
F1.8591389006000003
ssVlabel:OfficeMax-OM99060
p209
(dp210
g4
F1.2699998319999999
sS'paper.height'
p211
F27.940000000000001
sg6
F0
sg7
F2.540000016
sg8
I10
sg9
F7.1882000452800003
sg10
F7.1882000452800003
sg11
g154
sg13
F2.540000016
sS'paper.width'
p212
F21.59
sg15
F0.025399864159998842
sg16
I3
sg17
F1.270000008
ssVlabel:Herma-4828
p213
(dp214
g4
F0.9200041798198022
sS'paper.height'
p215
F29.700000000000003
sg6
F1.3600006752336002
sg7
F4.6499991959580003
sg8
I6
sg9
F7.869978382908001
sg10
F10.409978398908001
sg11
g21
sg13
F4.6499991959580003
sS'paper.width'
p216
F21
sg15
F1.3600425429503975
sg16
I2
sg17
F0.88000064443220005
ssVlabel:Sigel-DP830
p217
(dp218
g4
F1.0932498198000005
sS'paper.height'
p219
F29.700000000000003
sg6
F1.4111111200000002
sg7
F5.4998055902000003
sg8
I5
sg9
F8.4984167202000016
sg10
F9.4897222820000007
sg11
g21
sg13
F5.5033333680000007
sS'paper.width'
p220
F21
sg15
F1.6007498777999967
sg16
I2
sg17
F1.0936111180000001
ssVlabel:Avery-7164
p221
(dp222
g4
F0.55519314974399947
sS'paper.height'
p223
F29.700000000000003
sg6
F0.73518889352000005
sg7
F7.1980072675640008
sg8
I4
sg9
F6.3500000400000003
sg10
F6.5997667082400007
sg11
g179
sg13
F7.1980072675640008
sS'paper.width'
p224
F21
sg15
F0.71527764999999732
sg16
I3
sg17
F0.35277778000000004
ssVlabel:Avery-7165
p225
(dp226
g4
F1.3039357655715982
sS'paper.height'
p227
F29.700000000000003
sg6
F0.46700016960840002
sg7
F6.7730158759980013
sg8
I4
sg9
F9.9060000624000004
sg10
F10.163986452914001
sg11
g179
sg13
F6.7730158759980013
sS'paper.width'
p228
F21
sg15
F0.46301331507759791
sg16
I2
sg17
F1.3040007304364001
ssVlabel:Bruna-241301
p229
(dp230
g4
F0.90006870747200196
sS'paper.height'
p231
F29.700000000000003
sg6
F0
sg7
F3.5999914115660001
sg8
I8
sg9
F6.999993099650001
sg10
F6.999993099650001
sg11
g21
sg13
F3.5999914115660001
sS'paper.width'
p232
F21
sg15
F2.0701049995963672e-05
sg16
I3
sg17
F0
ssVlabel:Zweckform-3477
p233
(dp234
g4
F0.50700000000000145
sS'paper.height'
p235
F29.700000000000003
sg6
F0
sg7
F4.1000000000000005
sg8
I7
sg9
F10.5
sg10
F10.5
sg11
g12
sg13
F4.1000000000000005
sS'paper.width'
p236
F21
sg15
F0
sg16
I2
sg17
F0.49299999999999999
ssVlabel:Avery-7161
p237
(dp238
g4
F0.83924981820000255
sS'paper.height'
p239
F29.700000000000003
sg6
F0.74083333800000006
sg7
F4.6778333628000004
sg8
I6
sg9
F6.3570555956000003
sg10
F6.5934167082000004
sg11
g179
sg13
F4.6743055849999999
sS'paper.width'
p240
F21
sg15
F0.71527764999999732
sg16
I3
sg17
F0.81138889400000003
ssVlabel:Avery-7162
p241
(dp242
g4
F1.280222043200002
sS'paper.height'
p243
F29.700000000000003
sg6
F0.39863889140000003
sg7
F3.3901944658000001
sg8
I8
sg9
F9.9095278401999991
sg10
F10.248194509000001
sg11
g179
sg13
F3.3901944658000001
sS'paper.width'
p244
F21
sg15
F0.44363875939999886
sg16
I2
sg17
F1.2982222304
ssVlabel:DataBecker-BC?
p245
(dp246
g4
F2.1872137155800004
sS'paper.height'
p247
F29.700000000000003
sg6
F1.270000008
sg7
F5.0094444760000005
sg8
I5
sg9
F8.9958333900000014
sg10
F8.9958333900000014
sg11
g21
sg13
F5.0094444760000005
sS'paper.width'
p248
F21
sg15
F1.738333211999997
sg16
I2
sg17
F2.4655639044200002
ssVlabel:Avery-7169
p249
(dp250
g4
F1.1955553760000015
sS'paper.height'
p251
F29.700000000000003
sg6
F0.50094444760000001
sg7
F13.899444532
sg8
I2
sg9
F9.9095278401999991
sg10
F10.1494167306
sg11
g179
sg13
F13.899444532
sS'paper.width'
p252
F21
sg15
F0.44011098160000195
sg16
I2
sg17
F0.70555556000000008
ssVlabel:Zweckform-32010
p253
(dp254
g4
F1.2989192655400004
sS'paper.height'
p255
F29.700000000000003
sg6
F1.4111111200000002
sg7
F5.3999694784600001
sg8
I5
sg9
F8.4998278313200011
sg10
F9.4897222820000007
sg11
g12
sg13
F5.3975000340000001
sS'paper.width'
p256
F21
sg15
F1.5993387666799972
sg16
I2
sg17
F1.4111111200000002
ssVlabel:Zweckform-4760
p257
(dp258
g4
F1.5568844893872011
sS'paper.height'
p259
F29.700000000000003
sg6
F0.89999961678040008
sg7
F3.8000164128260003
sg8
I7
sg9
F19.200001232056
sg10
F19.200001232056
sg11
g12
sg13
F3.8000164128260003
sS'paper.width'
p260
F21
sg15
F0.89999915116360185
sg16
I1
sg17
F1.5430006208308
ssVlabel:Zweckform-4761
p261
(dp262
g4
F2.6560553851999984
sS'paper.height'
p263
F29.700000000000003
sg6
F0.8819444500000001
sg7
F6.0995278162000011
sg8
I4
sg9
F19.199930676500003
sg10
F19.199930676500003
sg11
g12
sg13
F6.0995278162000011
sS'paper.width'
p264
F21
sg15
F0.91812487349999827
sg16
I1
sg17
F2.6458333500000002
ssVlabel:Staples-EUBCSupreme
p265
(dp266
g4
F1.1999121815830023
sS'paper.height'
p267
F29.700000000000003
sg6
F1.5000005372266001
sg7
F5.5000172568680004
sg8
I5
sg9
F8.5000042202100001
sg10
F8.5000042202100001
sg11
g21
sg13
F5.5000172568680004
sS'paper.width'
p268
F21
sg15
F10.999995242563399
sg16
I1
sg17
F1.0000015340770001
ssVlabel:Stomper-PROSpine
p269
(dp270
g4
F13.65249991
sS'paper.height'
p271
F27.940000000000001
sg6
F0.63500000400000001
sg7
F0.70555556000000008
sg8
I1
sg9
F10.160000064
sg10
F10.160000064
sg11
g154
sg13
F0
sS'paper.width'
p272
F21.59
sg15
F0.6349998680000013
sg16
I2
sg17
F13.581944530000001
ssVlabel:Avery-5371
p273
(dp274
g4
F1.2700000000000031
sS'paper.height'
p275
F27.940000000000001
sg6
F1.905
sg7
F5.0800000000000001
sg8
I5
sg9
F8.8900000000000006
sg10
F8.8900000000000006
sg11
g154
sg13
F5.0800000000000001
sS'paper.width'
p276
F21.59
sg15
F1.9049999999999976
sg16
I2
sg17
F1.27
ssVlabel:Avery-L4732
p277
(dp278
g4
F1.360000000000003
sS'paper.height'
p279
F29.700000000000003
sg6
F1.1000000000000001
sg7
F1.6899999999999999
sg8
I16
sg9
F3.5600000000000005
sg10
F3.8100000000000005
sg11
g179
sg13
F1.6899999999999999
sS'paper.width'
p280
F21
sg15
F1.0999999999999943
sg16
I5
sg17
F1.3
ssVlabel:Avery-8651
p281
(dp282
g4
F1.0519748195399998
sS'paper.height'
p283
F29.700000000000003
sg6
F0.46990000296000006
sg7
F2.1198416800200004
sg8
I13
sg9
F3.8100000240000003
sg10
F4.0601194700200001
sg11
g179
sg13
F2.1198416800200004
sS'paper.width'
p284
F21
sg15
F0.47962209295999969
sg16
I5
sg17
F1.0900833402000001
ssVlabel:Zweckform-3688
p285
(dp286
g4
F2.6000554404028016
sS'paper.height'
p287
F29.700000000000003
sg6
F1.0000015340770001
sg7
F6.0999864273140005
sg8
I4
sg9
F19.200001232056
sg10
F19.200001232056
sg11
g12
sg13
F6.0999864273140005
sS'paper.width'
p288
F21
sg15
F0.79999723386699984
sg16
I1
sg17
F2.6999988503412
ssVlabel:Avery-8414
p289
(dp290
g4
F2.2577692715800026
sS'paper.height'
p291
F29.700000000000003
sg6
F1.4816666760000001
sg7
F5.0800000320000001
sg8
I5
sg9
F8.6995000547999997
sg10
F9.3133333920000005
sg11
g179
sg13
F5.0800000320000001
sS'paper.width'
p292
F21
sg15
F1.5054998772000001
sg16
I2
sg17
F2.0422305684200004
ssVlabel:Tough-Tags-TTLW-2016
p293
(dp294
g4
F0.9535581633400021
sS'paper.height'
p295
F27.940000000000001
sg6
F2.3988889040000001
sg7
F1.270000008
sg8
I17
sg9
F3.2512000204800002
sg10
F3.5560000224000001
sg11
g154
sg13
F1.5980833433999999
sS'paper.width'
p296
F21.59
sg15
F1.715910985919999
sg16
I5
sg17
F0.14710833426
ssVlabel:Stomper-PROZip
p297
(dp298
g4
F15.522222144000002
sS'paper.height'
p299
F27.940000000000001
sg6
F14.358055646
sg7
F5.0094444760000005
sg8
I2
sg9
F5.9266667040000005
sg10
F0
sg11
g154
sg13
F5.0094444760000005
sS'paper.width'
p300
F21.59
sg15
F1.305277649999999
sg16
I1
sg17
F2.3988889040000001
ssVlabel:Avery-5159
p301
(dp302
g4
F0.63500000000000156
sS'paper.height'
p303
F27.940000000000001
sg6
F0.39687499999999998
sg7
F3.8100000000000001
sg8
I7
sg9
F10.16
sg10
F10.63625
sg11
g154
sg13
F3.8100000000000001
sS'paper.width'
p304
F21.59
sg15
F0.39687499999999787
sg16
I2
sg17
F0.63500000000000001
ssVlabel:Herma-4608
p305
(dp306
g4
F0.90999940197900031
sS'paper.height'
p307
F29.700000000000003
sg6
F0.85000042202100001
sg7
F2.540000016
sg8
I11
sg9
F4.8299864193140012
sg10
F4.8299864193140012
sg11
g21
sg13
F2.540000016
sS'paper.width'
p308
F21
sg15
F0.83005390072299434
sg16
I4
sg17
F0.85000042202100001
ssVlabel:Avery-5997-Spine
p309
(dp310
g4
F1.2699998319999999
sS'paper.height'
p311
F27.940000000000001
sg6
F3.4925000220000002
sg7
F1.693333344
sg8
I15
sg9
F14.605000092000001
sg10
F0
sg11
g154
sg13
F1.693333344
sS'paper.width'
p312
F21.59
sg15
F3.4924998859999974
sg16
I1
sg17
F1.270000008
ssVlabel:Herma-4607
p313
(dp314
g4
F1.2599972930725976
sS'paper.height'
p315
F29.700000000000003
sg6
F0.85000042202100001
sg7
F1.6899995939790002
sg8
I16
sg9
F4.8299864193140012
sg10
F4.8299864193140012
sg11
g21
sg13
F1.6899995939790002
sS'paper.width'
p316
F21
sg15
F0.83005390072299434
sg16
I4
sg17
F1.4000092032633999
ssVlabel:Netc-749303-70001
p317
(dp318
g4
F1.3969998328000024
sS'paper.height'
p319
F27.940000000000001
sg6
F1.270000008
sg7
F2.0955000132000001
sg8
I10
sg9
F5.7150000360000002
sg10
F6.6675000420000003
sg11
g154
sg13
F2.540000016
sS'paper.width'
p320
F21.59
sg15
F1.2699998719999996
sg16
I3
sg17
F1.5875000100000001
ssVlabel:DECAdry-OCC3342
p321
(dp322
g4
F1.3499767936393994
sS'paper.height'
p323
F29.700000000000003
sg6
F1.5000005372266001
sg7
F5.4000047562380002
sg8
I5
sg9
F8.5000042202100001
sg10
F9.4999881153980006
sg11
g21
sg13
F5.4000047562380002
sS'paper.width'
p324
F21
sg15
F1.5000071271653983
sg16
I2
sg17
F1.3499994251706
ssVlabel:Zweckform-4780
p325
(dp326
g4
F2.3988874391356028
sS'paper.height'
p327
F29.700000000000003
sg6
F0.81138889400000003
sg7
F2.540000016
sg8
I10
sg9
F4.8499889194400003
sg10
F4.8499889194400003
sg11
g12
sg13
F2.540000016
sS'paper.width'
p328
F21
sg15
F0.78865542823999846
sg16
I4
sg17
F1.9011124008644003
ssVlabel:Zweckform-4781
p329
(dp330
g4
F2.1671053821200061
sS'paper.height'
p331
F29.700000000000003
sg6
F0.79999417170600007
sg7
F4.22998197109
sg8
I6
sg9
F9.6999778388800006
sg10
F9.6999778388800006
sg11
g12
sg13
F4.22998197109
sS'paper.width'
p332
F21
sg15
F0.80005015053399831
sg16
I2
sg17
F2.1530027913400001
ssVlabel:Avery-8373
p333
(dp334
g4
F1.9050000000000011
sS'paper.height'
p335
F27.940000000000001
sg6
F1.27
sg7
F5.0800000000000001
sg8
I4
sg9
F8.8900000000000006
sg10
F10.16
sg11
g154
sg13
F6.3499999999999996
sS'paper.width'
p336
F21.59
sg15
F1.2699999999999996
sg16
I2
sg17
F1.905
ssVlabel:Herma-4614
p337
(dp338
g4
F1.3600062659247989
sS'paper.height'
p339
F29.700000000000003
sg6
F0.57000069803499998
sg7
F3.3799991879580005
sg8
I8
sg9
F6.5999783749080008
sg10
F6.5999783749080008
sg11
g21
sg13
F3.3799991879580005
sS'paper.width'
p340
F21
sg15
F0.63006417724099784
sg16
I3
sg17
F1.3000002304112002
ssVlabel:Neato-USCD2lblRectangles
p341
(dp342
g4
F9.8043998857600005
sS'paper.height'
p343
F27.940000000000001
sg6
F1.8097500114
sg7
F8.2677000520800004
sg8
I1
sg9
F2.7178000171200005
sg10
F15.290800096320002
sg11
g154
sg13
F0
sS'paper.width'
p344
F21.59
sg15
F1.7716498751599978
sg16
I2
sg17
F9.8679000621600022
ssVlabel:Herma-4464
p345
(dp346
g4
F0.066666480000002082
sS'paper.height'
p347
F29.700000000000003
sg6
F0
sg7
F3.7041666900000001
sg8
I8
sg9
F7.0202778220000006
sg10
F7.0202778220000006
sg11
g21
sg13
F3.7041666900000001
sS'paper.width'
p348
F21
sg15
F-0.060833466000001835
sg16
I3
sg17
F0
ssVpaper:Letter
p349
(dp350
S'width'
p351
F21.59
sS'height'
p352
F27.940000000000001
ssVlabel:Avery-8435B
p353
(dp354
g4
F15.4
sS'paper.height'
p355
F29.700000000000003
sg6
F2.75
sg7
F12.200000000000001
sg8
I1
sg9
F15.5
sg10
F15.5
sg11
g179
sg13
F12.200000000000001
sS'paper.width'
p356
F21
sg15
F2.75
sg16
I1
sg17
F2.1000000000000001
ssVlabel:Avery-8435A
p357
(dp358
g4
F15.000000000000004
sS'paper.height'
p359
F29.700000000000003
sg6
F2.75
sg7
F12.5
sg8
I1
sg9
F15.5
sg10
F15.5
sg11
g179
sg13
F12.5
sS'paper.width'
p360
F21
sg15
F2.75
sg16
I1
sg17
F2.2000000000000002
ssVlabel:Avery-8666
p361
(dp362
g4
F1.8869998248000002
sS'paper.height'
p363
F29.700000000000003
sg6
F2.3283333480000001
sg7
F5.1999444772000007
sg8
I5
sg9
F6.9991111552000005
sg10
F9.3133333920000005
sg11
g179
sg13
F5.1858333660000007
sS'paper.width'
p364
F21
sg15
F2.3592221047999971
sg16
I2
sg17
F1.8697222340000001
ssVlabel:DataBecker-0598
p365
(dp366
g4
F2.0198982700815975
sS'paper.height'
p367
F29.700000000000003
sg6
F0.82000019960980008
sg7
F4.2300172488680001
sg8
I6
sg9
F9.7000131166580008
sg10
F9.7000131166580008
sg11
g21
sg13
F4.2300172488680001
sS'paper.width'
p368
F21
sg15
F0.7799735670741974
sg16
I2
sg17
F2.2999982367104002
ssVlabel:Herma-4283
p369
(dp370
g4
F1.1500682090467969
sS'paper.height'
p371
F29.700000000000003
sg6
F0.89999961678040008
sg7
F3.8999936356780003
sg8
I6
sg9
F19.200001232056
sg10
F19.200001232056
sg11
g21
sg13
F4.6999878073840007
sS'paper.width'
p372
F21
sg15
F0.89999915116360185
sg16
I1
sg17
F1.1499991183552001
ssVlabel:Neato-SlimlineCDCase-spine
p373
(dp374
g4
F1.573388722799999
sS'paper.height'
p375
F27.940000000000001
sg6
F3.4043055770000001
sg7
F12.082638965000001
sg8
I2
sg9
F13.917083421000001
sg10
F0
sg11
g154
sg13
F12.805833414
sS'paper.width'
p376
F21.59
sg15
F4.2686110020000001
sg16
I1
sg17
F1.4781388982000001
ssVlabel:Herma-4284
p377
(dp378
g4
F1.3499767936393994
sS'paper.height'
p379
F29.700000000000003
sg6
F0.89999961678040008
sg7
F6.1500103165180002
sg8
I4
sg9
F19.200001232056
sg10
F19.200001232056
sg11
g21
sg13
F6.9500044882240006
sS'paper.width'
p380
F21
sg15
F0.89999915116360185
sg16
I1
sg17
F1.3499994251706
ssVpaper:monarch
p381
(dp382
g351
F9.8424999999999994
sg352
F19.050000000000001
ssVlabel:Avery-5168
p383
(dp384
g4
F1.2700000000000031
sS'paper.height'
p385
F27.940000000000001
sg6
F1.27
sg7
F12.699999999999999
sg8
I2
sg9
F8.8900000000000006
sg10
F10.16
sg11
g154
sg13
F12.699999999999999
sS'paper.width'
p386
F21.59
sg15
F1.2699999999999996
sg16
I2
sg17
F1.27
ssVlabel:Avery-5167
p387
(dp388
g4
F1.2700000000000031
sS'paper.height'
p389
F27.940000000000001
sg6
F0.71437499999999998
sg7
F1.27
sg8
I20
sg9
F4.4450000000000003
sg10
F5.2387500000000005
sg11
g154
sg13
F1.27
sS'paper.width'
p390
F21.59
sg15
F0.71437499999999687
sg16
I4
sg17
F1.27
ssVlabel:Avery-5164
p391
(dp392
g4
F1.2700025399999966
sS'paper.height'
p393
F27.940000000000001
sg6
F0.39687499999999998
sg7
F8.4666658200000011
sg8
I3
sg9
F10.16
sg10
F10.63625
sg11
g154
sg13
F8.4666658200000011
sS'paper.width'
p394
F21.59
sg15
F0.39687499999999787
sg16
I2
sg17
F1.27
ssVlabel:Avery-5162
p395
(dp396
g4
F2.1166734399999996
sS'paper.height'
p397
F27.940000000000001
sg6
F0.39687499999999998
sg7
F3.3866658200000002
sg8
I7
sg9
F10.16
sg10
F10.63625
sg11
g154
sg13
F3.3866658200000002
sS'paper.width'
p398
F21.59
sg15
F0.39687499999999787
sg16
I2
sg17
F2.1166658200000001
ssVlabel:Avery-5163
p399
(dp400
g4
F1.2700000000000031
sS'paper.height'
p401
F27.940000000000001
sg6
F0.41275000000000001
sg7
F5.0800000000000001
sg8
I5
sg9
F10.16
sg10
F10.63625
sg11
g154
sg13
F5.0800000000000001
sS'paper.width'
p402
F21.59
sg15
F0.38100000000000023
sg16
I2
sg17
F1.27
ssVlabel:Avery-5160
p403
(dp404
g4
F1.2700000000000031
sS'paper.height'
p405
F27.940000000000001
sg6
F0.47625000000000001
sg7
F2.54
sg8
I10
sg9
F6.6675000000000004
sg10
F6.9850000000000003
sg11
g154
sg13
F2.54
sS'paper.width'
p406
F21.59
sg15
F0.47624999999999851
sg16
I3
sg17
F1.27
ssVlabel:Avery-5161
p407
(dp408
g4
F1.2700000000000031
sS'paper.height'
p409
F27.940000000000001
sg6
F0.39687499999999998
sg7
F2.54
sg8
I10
sg9
F10.16
sg10
F10.63625
sg11
g154
sg13
F2.54
sS'paper.width'
p410
F21.59
sg15
F0.39687499999999787
sg16
I2
sg17
F1.27
ssVpaper:A3
p411
(dp412
g351
F29.700000000000003
sg352
F42
ssVpaper:A2
p413
(dp414
g351
F42
sg352
F59.400000000000006
ssVpaper:A1
p415
(dp416
g351
F59.400000000000006
sg352
F84.100000000000009
ssVpaper:A0
p417
(dp418
g351
F84.100000000000009
sg352
F118.90000000000001
ssVpaper:A7
p419
(dp420
g351
F7.4000000000000004
sg352
F10.5
ssVpaper:A6
p421
(dp422
g351
F10.5
sg352
F14.800000000000001
ssVpaper:A5
p423
(dp424
g351
F14.800000000000001
sg352
F21
ssVpaper:A4
p425
(dp426
g351
F21
sg352
F29.700000000000003
ssVpaper:A9
p427
(dp428
g351
F3.7000000000000002
sg352
F5.2000000000000002
ssVpaper:A8
p429
(dp430
g351
F5.2000000000000002
sg352
F7.4000000000000004
ssVlabel:Avery-LSK-3.5
p431
(dp432
g4
F1.2700000000000031
sS'paper.height'
p433
F27.940000000000001
sg6
F1.27
sg7
F1.27
sg8
I20
sg9
F7.9501999999999997
sg10
F11.1252
sg11
g154
sg13
F1.27
sS'paper.width'
p434
F21.59
sg15
F12.369800000000001
sg16
I1
sg17
F1.27
ssVlabel:Avery-7664
p435
(dp436
g4
F0.41000000000000014
sS'paper.height'
p437
F29.700000000000003
sg6
F1.7000000000000002
sg7
F7.1900000000000013
sg8
I4
sg9
F7
sg10
F10.450000000000001
sg11
g179
sg13
F7.2000000000000002
sS'paper.width'
p438
F21
sg15
F1.8499999999999996
sg16
I2
sg17
F0.5
ssVlabel:Poundland-30
p439
(dp440
g4
F2.099999992808403
sS'paper.height'
p441
F29.700000000000003
sg6
F0.15000005372266001
sg7
F2.540000016
sg8
I10
sg9
F6.5000011520560008
sg10
F7.1000056002800003
sg11
g21
sg13
F2.540000016
sS'paper.width'
p442
F21
sg15
F0.14998759366133818
sg16
I3
sg17
F2.1999998471916
ssVlabel:Zweckform-3474
p443
(dp444
g4
F0.10000000000000142
sS'paper.height'
p445
F29.700000000000003
sg6
F0
sg7
F3.7000000000000002
sg8
I8
sg9
F7
sg10
F7
sg11
g12
sg13
F3.7000000000000002
sS'paper.width'
p446
F21
sg15
F0
sg16
I3
sg17
F0
ssVlabel:Connect-KF10647
p447
(dp448
g4
F-0.30003191119880412
sS'paper.height'
p449
F29.700000000000003
sg6
F0
sg7
F3.7000039121960007
sg8
I8
sg9
F6.999993099650001
sg10
F6.999993099650001
sg11
g21
sg13
F3.7000039121960007
sS'paper.width'
p450
F21
sg15
F2.0701049995963672e-05
sg16
I3
sg17
F0.40000061363080003
ssVlabel:Sigel-LP800
p451
(dp452
g4
F1.2000000000000028
sS'paper.height'
p453
F29.700000000000003
sg6
F1.5
sg7
F5.5
sg8
I5
sg9
F8.5
sg10
F9.5
sg11
g21
sg13
F5.5
sS'paper.width'
p454
F21
sg15
F1.5
sg16
I2
sg17
F1
ssVlabel:Ascom-A4/24/MKII
p455
(dp456
g4
F1.3366664879999988
sS'paper.height'
p457
F29.700000000000003
sg6
F0.6702777820000001
sg7
F3.386666688
sg8
I8
sg9
F6.3852778180000005
sg10
F6.5969444860000008
sg11
g21
sg13
F3.386666688
sS'paper.width'
p458
F21
sg15
F0.75055542799999841
sg16
I3
sg17
F1.270000008
ssVlabel:DECAdry-DLW-1787
p459
(dp460
g4
F0.85000000000000142
sS'paper.height'
p461
F29.700000000000003
sg6
F0
sg7
F3.5
sg8
I8
sg9
F7
sg10
F7
sg11
g21
sg13
F3.5
sS'paper.width'
p462
F21
sg15
F0
sg16
I3
sg17
F0.85000000000000009
ssVlabel:DECAdry-DLW-1786
p463
(dp464
g4
F1.1999999999999993
sS'paper.height'
p465
F29.700000000000003
sg6
F0
sg7
F3.9000000000000004
sg8
I7
sg9
F10.5
sg10
F10.5
sg11
g21
sg13
F3.9000000000000004
sS'paper.width'
p466
F21
sg15
F0
sg16
I2
sg17
F1.2000000000000002
ssVlabel:Herma-4293
p467
(dp468
g4
F1.6001315174374007
sS'paper.height'
p469
F29.700000000000003
sg6
F0.89999961678040008
sg7
F3.7999811350480002
sg8
I7
sg9
F19.200001232056
sg10
F19.200001232056
sg11
g21
sg13
F3.7999811350480002
sS'paper.width'
p470
F21
sg15
F0.89999915116360185
sg16
I1
sg17
F1.5000005372266001
ssVlabel:Avery-5931-Spine
p471
(dp472
g4
F1.8653125000000035
sS'paper.height'
p473
F27.940000000000001
sg6
F1.27
sg7
F11.90625
sg8
I2
sg9
F0.55562500000000004
sg10
F1.190625
sg11
g154
sg13
F12.303125
sS'paper.width'
p474
F21.59
sg15
F18.57375
sg16
I2
sg17
F1.8653124999999999
ssVlabel:Avery-7414
p475
(dp476
g4
F1.8503109356799996
sS'paper.height'
p477
F29.700000000000003
sg6
F1.4996583427800001
sg7
F5.1999444772000007
sg8
I5
sg9
F8.9993611678000001
sg10
F8.9993611678000001
sg11
g179
sg13
F5.1999444772000007
sS'paper.width'
p478
F21
sg15
F1.501619321619998
sg16
I2
sg17
F1.8499666783200002
ssVlabel:Epson-S041144
p479
(dp480
g4
F1.9059721409999995
sS'paper.height'
p481
F14.800000000000001
sg6
F1.1641666740000001
sg7
F2.3988889040000001
sg8
I4
sg9
F1.693333344
sg10
F2.0990277910000001
sg11
VA6
p482
sg13
F2.8045833510000002
sS'paper.width'
p483
F10.5
sg15
F1.345416608999999
sg16
I4
sg17
F2.081388902
ssVpaper:B6
p484
(dp485
g351
F12.5
sg352
F17.600000000000001
ssVpaper:B7
p486
(dp487
g351
F8.8000000000000007
sg352
F12.5
ssVpaper:B4
p488
(dp489
g351
F25
sg352
F35.300000000000004
ssVpaper:B5
p490
(dp491
g351
F17.600000000000001
sg352
F25
ssVpaper:B2
p492
(dp493
g351
F50
sg352
F70.700000000000003
ssVpaper:B3
p494
(dp495
g351
F35.300000000000004
sg352
F50
ssVpaper:B0
p496
(dp497
g351
F100
sg352
F141.40000000000001
ssVpaper:B1
p498
(dp499
g351
F70.700000000000003
sg352
F100
ssVlabel:Avery-8195
p500
(dp501
g4
F1.216660000000001
sS'paper.height'
p502
F27.940000000000001
sg6
F0.75437999999999994
sg7
F1.69164
sg8
I15
sg9
F4.4450000000000003
sg10
F5.1587400000000008
sg11
g154
sg13
F1.69164
sS'paper.width'
p503
F21.59
sg15
F0.91439999999999699
sg16
I4
sg17
F1.34874
ssVpaper:B8
p504
(dp505
g351
F6.2000000000000002
sg352
F8.8000000000000007
ssVpaper:B9
p506
(dp507
g351
F4.4000000000000004
sg352
F6.2000000000000002
ssVlabel:Herma-8803
p508
(dp509
g4
F2.1500027153456003
sS'paper.height'
p510
F29.700000000000003
sg6
F2.1499971246544001
sg7
F5.0800000320000001
sg8
I5
sg9
F6.999993099650001
sg10
F9.5399931156500006
sg11
g21
sg13
F5.0800000320000001
sS'paper.width'
p511
F21
sg15
F2.310016660045596
sg16
I2
sg17
F2.1499971246544001
ssVpaper:Legal
p512
(dp513
g351
F21.59
sg352
F35.560000000000002
ssVlabel:Herma-4606
p514
(dp515
g4
F1.089993680890597
sS'paper.height'
p516
F29.700000000000003
sg6
F0.94999881153980004
sg7
F2.1200004300210002
sg8
I13
sg9
F3.7999811350480002
sg10
F3.7999811350480002
sg11
g21
sg13
F2.1200004300210002
sS'paper.width'
p517
F21
sg15
F1.0500955132201995
sg16
I5
sg17
F1.0500007288364002
ssVpaper:c5
p518
(dp519
g351
F16.199999999999999
sg352
F22.900000000000002
ssVpaper:c6
p520
(dp521
g351
F11.4
sg352
F16.199999999999999
ssVlabel:Russian-A35x9
p522
(dp523
g4
F1
sS'paper.height'
p524
F42
sg6
F1.4000000000000001
sg7
F5
sg8
I8
sg9
F9
sg10
F9
sg11
VA3
p525
sg13
F5
sS'paper.width'
p526
F29.700000000000003
sg15
F1.3000000000000043
sg16
I3
sg17
F1
ssVlabel:Avery-8165
p527
(dp528
g4
F0
sS'paper.height'
p529
F27.940000000000001
sg6
F0
sg7
F27.940000000000001
sg8
I1
sg9
F21.59
sg10
F0
sg11
g154
sg13
F0
sS'paper.width'
p530
F21.59
sg15
F0
sg16
I1
sg17
F0
ssVlabel:DataBecker-0526
p531
(dp532
g4
F0.35006698178520423
sS'paper.height'
p533
F29.700000000000003
sg6
F0
sg7
F3.5999914115660001
sg8
I8
sg9
F6.999993099650001
sg10
F6.999993099650001
sg11
g21
sg13
F3.5999914115660001
sS'paper.width'
p534
F21
sg15
F2.0701049995963672e-05
sg16
I3
sg17
F0.55000172568680006
ssVlabel:Avery-LSK-5.5
p535
(dp536
g4
F1.7780000000000022
sS'paper.height'
p537
F27.940000000000001
sg6
F1.27
sg7
F1.27
sg8
I20
sg9
F4.4450000000000003
sg10
F5.2069999999999999
sg11
g154
sg13
F1.27
sS'paper.width'
p538
F21.59
sg15
F10.667999999999999
sg16
I2
sg17
F0.76200000000000001
ssVlabel:Herma-4625
p539
(dp540
g4
F0.090126202370004904
sS'paper.height'
p541
F29.700000000000003
sg6
F0
sg7
F4.22998197109
sg8
I7
sg9
F10.500007288363999
sg10
F10.500007288363999
sg11
g21
sg13
F4.22998197109
sS'paper.width'
p542
F21
sg15
F-1.4576727998871775e-05
sg16
I2
sg17
F0
ssS'papersizes'
p543
(dp544
VLegal
p545
(lp546
sVB10
p547
(lp548
sVA10
p549
(lp550
sVA1
p551
(lp552
sVA0
p553
(lp554
sVA3
p555
(lp556
g107
asVA2
p557
(lp558
sVA5
p559
(lp560
sVA4
p561
(lp562
g25
ag26
ag27
ag28
ag29
ag30
ag31
ag33
ag34
ag36
ag37
ag38
ag39
ag42
ag43
ag44
ag45
ag46
ag47
ag48
ag49
ag50
ag51
ag52
ag53
ag54
ag55
ag58
ag59
ag60
ag61
ag62
ag65
ag67
ag69
ag70
ag71
ag73
ag75
ag76
ag77
ag78
ag79
ag80
ag81
ag82
ag91
ag94
ag96
ag97
ag98
ag99
ag102
ag105
ag106
ag109
ag111
ag113
ag114
ag115
ag119
ag121
ag124
ag126
ag127
ag128
ag131
ag133
ag138
ag140
ag141
ag142
ag144
ag145
ag146
asVA7
p563
(lp564
sVA6
p565
(lp566
g103
asVA9
p567
(lp568
sVmonarch
p569
(lp570
sVdl
p571
(lp572
sVLetter
p573
(lp574
g32
ag35
ag40
ag41
ag56
ag57
ag63
ag64
ag66
ag68
ag72
ag74
ag83
ag84
ag85
ag86
ag87
ag88
ag89
ag90
ag92
ag93
ag95
ag100
ag101
ag104
ag108
ag110
ag112
ag116
ag117
ag118
ag120
ag122
ag123
ag125
ag129
ag130
ag132
ag134
ag135
ag136
ag137
ag139
ag143
asVnumber10
p575
(lp576
sVA8
p577
(lp578
sVc6
p579
(lp580
sVc5
p581
(lp582
sVExecutive
p583
(lp584
sVB4
p585
(lp586
sVB5
p587
(lp588
sVB6
p589
(lp590
sVB7
p591
(lp592
sVB0
p593
(lp594
sVB1
p595
(lp596
sVB2
p597
(lp598
sVB3
p599
(lp600
sVB8
p601
(lp602
sVB9
p603
(lp604
ssVlabel:Avery-6879
p605
(dp606
g4
F2.8575000000000017
sS'paper.height'
p607
F27.940000000000001
sg6
F0.95250000000000001
sg7
F3.1749999999999998
sg8
I6
sg9
F9.5250000000000004
sg10
F10.16
sg11
g154
sg13
F3.8100000000000001
sS'paper.width'
p608
F21.59
sg15
F0.95249999999999879
sg16
I2
sg17
F2.8574999999999999
ssVlabel:Avery-7163
p609
(dp610
g4
F1.5130553780000007
sS'paper.height'
p611
F29.700000000000003
sg6
F0.33513889100000005
sg7
F3.8100000240000003
sg8
I7
sg9
F9.9095278401999991
sg10
F10.301111176000001
sg11
g179
sg13
F3.8100000240000003
sS'paper.width'
p612
F21
sg15
F0.45422209280000025
sg16
I2
sg17
F1.5169444540000001
ssVlabel:Avery-LSK-5
p613
(dp614
g4
F1.7780000000000022
sS'paper.height'
p615
F27.940000000000001
sg6
F1.27
sg7
F1.27
sg8
I20
sg9
F4.4450000000000003
sg10
F5.2069999999999999
sg11
g154
sg13
F1.27
sS'paper.width'
p616
F21.59
sg15
F0.25400000000000134
sg16
I4
sg17
F0.76200000000000001
ssVlabel:Avery-LSK-3
p617
(dp618
g4
F1.2700000000000031
sS'paper.height'
p619
F27.940000000000001
sg6
F1.27
sg7
F1.27
sg8
I20
sg9
F7.9501999999999997
sg10
F11.1252
sg11
g154
sg13
F1.27
sS'paper.width'
p620
F21.59
sg15
F1.2446000000000019
sg16
I2
sg17
F1.27
ssVlabel:Avery-5388
p621
(dp622
g4
F2.5400000000000009
sS'paper.height'
p623
F27.940000000000001
sg6
F4.4450000000000003
sg7
F7.6200000000000001
sg8
I3
sg9
F12.699999999999999
sg10
F12.699999999999999
sg11
g154
sg13
F7.6200000000000001
sS'paper.width'
p624
F21.59
sg15
F4.4450000000000003
sg16
I1
sg17
F2.54
ssVlabel:Avery-5389
p625
(dp626
g4
F3.1750000000000007
sS'paper.height'
p627
F27.940000000000001
sg6
F3.1749999999999998
sg7
F10.16
sg8
I2
sg9
F15.24
sg10
F15.24
sg11
g154
sg13
F11.43
sS'paper.width'
p628
F21.59
sg15
F3.1749999999999989
sg16
I1
sg17
F3.1749999999999998
ssVlabel:Avery-LSK-8
p629
(dp630
g4
F1.2700000000000031
sS'paper.height'
p631
F27.940000000000001
sg6
F1.27
sg7
F1.27
sg8
I20
sg9
F2.8701999999999996
sg10
F5.4101999999999997
sg11
g154
sg13
F1.27
sS'paper.width'
p632
F21.59
sg15
F1.2192000000000007
sg16
I4
sg17
F1.27
ssVpaper:B10
p633
(dp634
g351
F3.1000000000000001
sg352
F4.4000000000000004
ssVlabel:Zweckform-6021
p635
(dp636
g4
F1.2599972930725976
sS'paper.height'
p637
F29.700000000000003
sg6
F0.85000042202100001
sg7
F1.6899995939790002
sg8
I16
sg9
F4.5999400289760004
sg10
F4.8299864193140012
sg11
g12
sg13
F1.6899995939790002
sS'paper.width'
p638
F21
sg15
F1.0601002910609942
sg16
I4
sg17
F1.4000092032633999
ssVlabel:Avery-6490
p639
(dp640
g4
F1.2700000000000031
sS'paper.height'
p641
F27.940000000000001
sg6
F0.3175
sg7
F5.0800000000000001
sg8
I5
sg9
F6.8262499999999999
sg10
F7.0643750000000001
sg11
g154
sg13
F5.0800000000000001
sS'paper.width'
p642
F21.59
sg15
F0.31750000000000078
sg16
I3
sg17
F1.27
ssVlabel:Agipa-119488
p643
(dp644
g4
F2.2891664939999998
sS'paper.height'
p645
F29.700000000000003
sg6
F1.5169444540000001
sg7
F5.0094444760000005
sg8
I5
sg9
F8.9958333900000014
sg10
F8.9958333900000014
sg11
g21
sg13
F5.0094444760000005
sS'paper.width'
p646
F21
sg15
F1.4913887659999965
sg16
I2
sg17
F2.3636111260000003
ssVpaper:A10
p647
(dp648
g351
F2.6000000000000001
sg352
F3.7000000000000002
ssVlabel:Avery-5197
p649
(dp650
g4
F2.5400000000000027
sS'paper.height'
p651
F27.940000000000001
sg6
F0.47625000000000001
sg7
F3.8100000000000001
sg8
I6
sg9
F10.16
sg10
F10.477500000000001
sg11
g154
sg13
F3.8100000000000001
sS'paper.width'
p652
F21.59
sg15
F0.47624999999999851
sg16
I2
sg17
F2.54
ssVlabel:Avery-5196
p653
(dp654
g4
F4.4450000000000021
sS'paper.height'
p655
F27.940000000000001
sg6
F0.3175
sg7
F6.9850000000000003
sg8
I3
sg9
F6.9850000000000003
sg10
F6.9850000000000003
sg11
g154
sg13
F7.6200000000000001
sS'paper.width'
p656
F21.59
sg15
F0.31750000000000078
sg16
I3
sg17
F1.27
ssS'label:Buro1 129820'
p657
(dp658
g4
F1.3000000000000043
sS'paper.height'
p659
F29.700000000000003
sg6
F1.4000000000000001
sg7
F5.4000000000000004
sg8
I5
sg9
F8.5
sg10
F9.5
sg11
S'A4'
p660
sg13
F5.4000000000000004
sS'paper.width'
p661
F21
sg15
F1.6000000000000014
sg16
I2
sg17
F1.4000000000000001
ssVlabel:Avery-5997-Face
p662
(dp663
g4
F2.3459720609999977
sS'paper.height'
p664
F27.940000000000001
sg6
F2.8222222400000003
sg7
F4.6919444740000005
sg8
I5
sg9
F7.7611111600000005
sg10
F8.3255556080000002
sg11
g154
sg13
F4.6919444740000005
sS'paper.width'
p665
F21.59
sg15
F2.6811109920000007
sg16
I2
sg17
F2.1343055690000003
ssVlabel:Avery-5305
p666
(dp667
g4
F1.2699998319999981
sS'paper.height'
p668
F27.940000000000001
sg6
F0
sg7
F6.3500000400000003
sg8
I2
sg9
F21.590000136
sg10
F0
sg11
g154
sg13
F12.700000080000001
sS'paper.width'
p669
F21.59
sg15
F-1.3600000059454942e-07
sg16
I1
sg17
F7.6200000480000005
ssVpaper:number10
p670
(dp671
g351
F10.477500000000001
sg352
F24.129999999999999
ssS'units'
p672
S'cm'
p673
sVlabel:Avery-6121
p674
(dp675
g4
F1.0792798197120028
sS'paper.height'
p676
F29.700000000000003
sg6
F0.9499600059840001
sg7
F2.12090001336
sg8
I13
sg9
F3.8074600239840004
sg10
F3.8074600239840004
sg11
g179
sg13
F2.12090001336
sS'paper.width'
p677
F21
sg15
F1.012739874095999
sg16
I5
sg17
F1.0490200066080002
ssVpaper:dl
p678
(dp679
g351
F11
sg352
F22
ssVlabel:Zweckform-3348
p680
(dp681
g4
F1.0998855698417991
sS'paper.height'
p682
F29.700000000000003
sg6
F0.19999995403762003
sg7
F3.8000164128260003
sg8
I7
sg9
F6.699990875538
sg10
F6.999993099650001
sg11
g12
sg13
F3.8000164128260003
sS'paper.width'
p683
F21
sg15
F0.10002297112438008
sg16
I3
sg17
F1.9999995403762003
ssVlabel:Neato-SlimlineCDCase
p684
(dp685
g4
F1.573388722799999
sS'paper.height'
p686
F27.940000000000001
sg6
F4.5861111400000008
sg7
F12.082638965000001
sg8
I2
sg9
F13.917083421000001
sg10
F0
sg11
g154
sg13
F12.805833414
sS'paper.width'
p687
F21.59
sg15
F3.086805438999999
sg16
I1
sg17
F1.4781388982000001
ssVlabel:Dataline-57125
p688
(dp689
g4
F0.95000000000000284
sS'paper.height'
p690
F29.700000000000003
sg6
F1.6000000000000001
sg7
F5.4000000000000004
sg8
I5
sg9
F8.5999999999999996
sg10
F9.0999999999999996
sg11
g21
sg13
F5.5625
sS'paper.width'
p691
F21
sg15
F1.6999999999999993
sg16
I2
sg17
F1.1000000000000001
ssVlabel:Ednet-45021
p692
(dp693
g4
F0.099968702431997514
sS'paper.height'
p694
F29.700000000000003
sg6
F0
sg7
F3.7000039121960007
sg8
I8
sg9
F6.999993099650001
sg10
F6.999993099650001
sg11
g21
sg13
F3.7000039121960007
sS'paper.width'
p695
F21
sg15
F2.0701049995963672e-05
sg16
I3
sg17
F0
ssVlabel:Avery-5126
p696
(dp697
g4
F0
sS'paper.height'
p698
F27.940000000000001
sg6
F0
sg7
F13.970000000000001
sg8
I2
sg9
F21.59
sg10
F0
sg11
g154
sg13
F13.970000000000001
sS'paper.width'
p699
F21.59
sg15
F0
sg16
I1
sg17
F0
ssVlabel:DataBecker-0491
p700
(dp701
g4
F1.6000000000000014
sS'paper.height'
p702
F29.700000000000003
sg6
F1.25
sg7
F5
sg8
I5
sg9
F9
sg10
F9.4550000000000001
sg11
g21
sg13
F5.4000000000000004
sS'paper.width'
p703
F21
sg15
F1.2949999999999999
sg16
I2
sg17
F1.5
ssVlabel:Avery-5395
p704
(dp705
g4
F1.481668360000004
sS'paper.height'
p706
F27.940000000000001
sg6
F1.7462500000000001
sg7
F5.9266658200000002
sg8
I4
sg9
F8.5724999999999998
sg10
F9.5250000000000004
sg11
g154
sg13
F6.3499999999999996
sS'paper.width'
p707
F21.59
sg15
F1.7462499999999999
sg16
I2
sg17
F1.4816658199999999
ssVlabel:Avery-5663
p708
(dp709
g4
F1.2700000000000031
sS'paper.height'
p710
F27.940000000000001
sg6
F0
sg7
F5.0800000000000001
sg8
I5
sg9
F10.795
sg10
F10.795
sg11
g154
sg13
F5.0800000000000001
sS'paper.width'
p711
F21.59
sg15
F0
sg16
I2
sg17
F1.27
ssVlabel:Kingdom-L
p712
(dp713
g4
F0.60959982783999678
sS'paper.height'
p714
F27.940000000000001
sg6
F1.16840000736
sg7
F4.1275000259999999
sg8
I6
sg9
F8.8900000559999999
sg10
F9.2075000580000008
sg11
g154
sg13
F4.4500800280320005
sS'paper.width'
p715
F21.59
sg15
F2.3240998786400002
sg16
I2
sg17
F0.95250000600000007
ssS'label:Avery-5526'
p716
(dp717
g4
F0
sS'paper.height'
p718
F27.940000000000001
sg6
F0
sg7
F13.970000000000001
sg8
I2
sg9
F21.59
sg10
F0
sg11
S'Letter'
p719
sg13
F13.970000000000001
sS'paper.width'
p720
F21.59
sg15
F0
sg16
I1
sg17
F0
ssVlabel:Zweckform-4746
p721
(dp722
g4
F1.8570066579443996
sS'paper.height'
p723
F29.700000000000003
sg6
F3.1339966586306001
sg7
F1.9999995403762003
sg8
I13
sg9
F14.696722314800002
sg10
F14.696722314800002
sg11
g12
sg13
F1.9999995403762003
sS'paper.width'
p724
F21
sg15
F3.1692810265693971
sg16
I1
sg17
F1.8429993171650001
ssVlabel:Southworth-BC
p725
(dp726
g4
F1.2699998319999999
sS'paper.height'
p727
F27.940000000000001
sg6
F1.270000008
sg7
F5.0800000320000001
sg8
I5
sg9
F8.8900000559999999
sg10
F10.160000064
sg11
g154
sg13
F5.0800000320000001
sS'paper.width'
p728
F21.59
sg15
F1.2699998719999996
sg16
I2
sg17
F1.270000008
ssVpaper:Executive
p729
(dp730
g351
F18.414999999999999
sg352
F26.670000000000002
ssVlabel:Viking-02204
p731
(dp732
g4
F0.066666479999998529
sS'paper.height'
p733
F29.700000000000003
sg6
F0
sg7
F4.2333333600000005
sg8
I7
sg9
F6.9850000440000004
sg10
F6.9850000440000004
sg11
g21
sg13
F4.2333333600000005
sS'paper.width'
p734
F21
sg15
F0.044999867999999665
sg16
I3
sg17
F0
ssVlabel:Zweckform-3651
p735
(dp736
g4
F0.10003925798799784
sS'paper.height'
p737
F29.700000000000003
sg6
F0.099977222852000017
sg7
F2.9499983519160002
sg8
I10
sg9
F5.2000009216448007
sg10
F5.2000009216448007
sg11
g12
sg13
F2.9499983519160002
sS'paper.width'
p738
F21
sg15
F0.10001909056879654
sg16
I4
sg17
F0.099977222852000017
ssVlabel:Avery-7160
p739
(dp740
g4
F1.4813053778000018
sS'paper.height'
p741
F29.700000000000003
sg6
F0.74788889359999999
sg7
F3.8100000240000003
sg8
I7
sg9
F6.3993889292000006
sg10
F6.6040000416
sg11
g179
sg13
F3.8100000240000003
sS'paper.width'
p742
F21
sg15
F0.64472209400000047
sg16
I3
sg17
F1.5486944542000001
ssVlabel:Avery-LSK-8.5
p743
(dp744
g4
F1.2700000000000031
sS'paper.height'
p745
F27.940000000000001
sg6
F1.27
sg7
F1.27
sg8
I20
sg9
F2.8701999999999996
sg10
F5.4101999999999997
sg11
g154
sg13
F1.27
sS'paper.width'
p746
F21.59
sg15
F12.0396
sg16
I2
sg17
F1.27
ssVlabel:Apli-01293
p747
(dp748
g4
F1.5299992947734005
sS'paper.height'
p749
F29.700000000000003
sg6
F0
sg7
F3.3299999931986002
sg8
I8
sg9
F6.999993099650001
sg10
F6.999993099650001
sg11
g21
sg13
F3.3299999931986002
sS'paper.width'
p750
F21
sg15
F2.0701049995963672e-05
sg16
I3
sg17
F1.5300007596378002
ssVlabel:Zweckform-3490
p751
(dp752
g4
F0.45708564912600025
sS'paper.height'
p753
F29.700000000000003
sg6
F0
sg7
F3.5999914115660001
sg8
I8
sg9
F6.999993099650001
sg10
F6.999993099650001
sg11
g12
sg13
F3.5999914115660001
sS'paper.width'
p754
F21
sg15
F2.0701049995963672e-05
sg16
I3
sg17
F0.44298305834600005
ssVlabel:Zweckform-3659
p755
(dp756
g4
F2.0774998260000004
sS'paper.height'
p757
F29.700000000000003
sg6
F0.80010000504000001
sg7
F4.2509722490000001
sg8
I6
sg9
F9.6661111720000008
sg10
F9.6661111720000008
sg11
g12
sg13
F4.2509722490000001
sS'paper.width'
p758
F21
sg15
F0.86767765095999749
sg16
I2
sg17
F2.1166666800000002
ss.